target datalayout = "e-m:e-p270:32:32-p271:32:32-p272:64:64-i64:64-i128:128-f80:128-n8:16:32:64-S128"
target triple = "x86_64-pc-linux-gnu"

%struct.XML_Parser_Struct = type { i32, ptr, ptr, ptr, ptr, ptr, ptr, ptr, ptr, ptr, ptr, ptr, ptr, ptr, ptr }

; Function Attrs: nounwind uwtable
define internal void @cdata_handler(ptr noundef %0, ptr noundef %1, i32 noundef %2) #0 {
  %4 = alloca ptr, align 8
  %5 = alloca ptr, align 8
  %6 = alloca i32, align 4
  %7 = alloca ptr, align 8
  %8 = alloca i32, align 4
  store ptr %0, ptr %4, align 8, !tbaa !53
  store ptr %1, ptr %5, align 8, !tbaa !4
  store i32 %2, ptr %6, align 4, !tbaa !66
  call void @llvm.lifetime.start.p0(i64 8, ptr %7) #8
  %9 = load ptr, ptr %4, align 8, !tbaa !53
  store ptr %9, ptr %7, align 8, !tbaa !11
  %10 = load ptr, ptr %7, align 8, !tbaa !11
  %11 = getelementptr inbounds nuw %struct.XML_Parser_Struct, ptr %10, i32 0, i32 6
  %12 = load ptr, ptr %11, align 8, !tbaa !57
  %13 = icmp eq ptr %12, null
  br i1 %13, label %14, label %29

14:                                               ; preds = %3
  %15 = load ptr, ptr %7, align 8, !tbaa !11
  %16 = getelementptr inbounds nuw %struct.XML_Parser_Struct, ptr %15, i32 0, i32 9
  %17 = load ptr, ptr %16, align 8, !tbaa !60
  %18 = icmp ne ptr %17, null
  br i1 %18, label %19, label %28

19:                                               ; preds = %14
  %20 = load ptr, ptr %7, align 8, !tbaa !11
  %21 = getelementptr inbounds nuw %struct.XML_Parser_Struct, ptr %20, i32 0, i32 9
  %22 = load ptr, ptr %21, align 8, !tbaa !60
  %23 = load ptr, ptr %7, align 8, !tbaa !11
  %24 = getelementptr inbounds nuw %struct.XML_Parser_Struct, ptr %23, i32 0, i32 2
  %25 = load ptr, ptr %24, align 8, !tbaa !54
  %26 = load ptr, ptr %5, align 8, !tbaa !4
  %27 = load i32, ptr %6, align 4, !tbaa !66
  call void %22(ptr noundef %25, ptr noundef %26, i32 noundef %27)
  br label %28

28:                                               ; preds = %19, %14
  store i32 1, ptr %8, align 4
  br label %38

29:                                               ; preds = %3
  %30 = load ptr, ptr %7, align 8, !tbaa !11
  %31 = getelementptr inbounds nuw %struct.XML_Parser_Struct, ptr %30, i32 0, i32 6
  %32 = load ptr, ptr %31, align 8, !tbaa !57
  %33 = load ptr, ptr %7, align 8, !tbaa !11
  %34 = getelementptr inbounds nuw %struct.XML_Parser_Struct, ptr %33, i32 0, i32 2
  %35 = load ptr, ptr %34, align 8, !tbaa !54
  %36 = load ptr, ptr %5, align 8, !tbaa !4
  %37 = load i32, ptr %6, align 4, !tbaa !66
  call void %32(ptr noundef %35, ptr noundef %36, i32 noundef %37)
  store i32 0, ptr %8, align 4
  br label %38

38:                                               ; preds = %29, %28
  call void @llvm.lifetime.end.p0(i64 8, ptr %7) #8
  %39 = load i32, ptr %8, align 4
  switch i32 %39, label %41 [
    i32 0, label %40
    i32 1, label %40
  ]

40:                                               ; preds = %38, %38
  ret void

41:                                               ; preds = %38
  unreachable
}