; Function Attrs: nounwind uwtable
define internal void @cdata_handler(ptr noundef readonly captures(none) %0, ptr noundef %1, i32 noundef %2) #0 {
  %4 = getelementptr inbounds nuw i8, ptr %0, i64 48
  %5 = load ptr, ptr %4, align 8, !tbaa !50
  %6 = icmp eq ptr %5, null
  br i1 %6, label %7, label %.sink.split

7:                                                ; preds = %3
  %8 = getelementptr inbounds nuw i8, ptr %0, i64 72
  %9 = load ptr, ptr %8, align 8, !tbaa !53
  %.not = icmp eq ptr %9, null
  br i1 %.not, label %12, label %.sink.split

.sink.split:                                      ; preds = %3, %7
  %.sink11 = phi ptr [ %9, %7 ], [ %5, %3 ]
  %10 = getelementptr inbounds nuw i8, ptr %0, i64 16
  %11 = load ptr, ptr %10, align 8, !tbaa !47
  tail call void %.sink11(ptr noundef %11, ptr noundef %1, i32 noundef %2) #11
  br label %12

12:                                               ; preds = %.sink.split, %7
  ret void
}